; Function Attrs: nounwind sspstrong uwtable
define internal fastcc range(i32 0, 2) i32 @check_forwarding_args(ptr noundef %0) unnamed_addr #0 {
  %2 = getelementptr inbounds nuw i8, ptr %0, i64 168
  %3 = load ptr, ptr %2, align 8, !tbaa !89
  %4 = getelementptr inbounds nuw i8, ptr %3, i64 8
  %5 = load ptr, ptr %4, align 8, !tbaa !138
  %6 = load ptr, ptr %3, align 8, !tbaa !182
  %.not58.i.i = icmp eq ptr %5, null
  br i1 %.not58.i.i, label %.critedge37.i.i, label %.lr.ph.i.i

.lr.ph.i.i:                                       ; preds = %1, %9
  %.03060.i.i = phi ptr [ %11, %9 ], [ %6, %1 ]
  %.03159.i.i = phi ptr [ %8, %9 ], [ %5, %1 ]
  %7 = getelementptr inbounds nuw i8, ptr %.03159.i.i, i64 16
  %8 = load ptr, ptr %7, align 8, !tbaa !139
  %magicptr52.i.i = ptrtoint ptr %8 to i64
  switch i64 %magicptr52.i.i, label %9 [
    i64 1, label %local_id.exit
    i64 0, label %.critedge37.i.i
  ]

9:                                                ; preds = %.lr.ph.i.i
  %10 = getelementptr inbounds nuw i8, ptr %.03060.i.i, i64 16
  %11 = load ptr, ptr %10, align 8, !tbaa !139
  br label %.lr.ph.i.i

.critedge37.i.i:                                  ; preds = %.lr.ph.i.i, %1
  %.031.lcssa.i.i = phi ptr [ null, %1 ], [ %.03159.i.i, %.lr.ph.i.i ]
  %.030.lcssa.i.i = phi ptr [ %6, %1 ], [ %.03060.i.i, %.lr.ph.i.i ]
  %switch.i.i.i = icmp ult ptr %.030.lcssa.i.i, inttoptr (i64 2 to ptr)
  br i1 %switch.i.i.i, label %vtable_included.exit.thread.i.i, label %.preheader.i.i.i

.preheader.i.i.i:                                 ; preds = %.critedge37.i.i
  %12 = getelementptr inbounds nuw i8, ptr %.030.lcssa.i.i, i64 8
  %13 = load i32, ptr %12, align 8, !tbaa !179
  %14 = icmp sgt i32 %13, 0
  br i1 %14, label %.lr.ph.i.i.i, label %vtable_included.exit.thread.i.i

.lr.ph.i.i.i:                                     ; preds = %.preheader.i.i.i
  %15 = load ptr, ptr %.030.lcssa.i.i, align 8, !tbaa !181
  %wide.trip.count.i.i.i = zext nneg i32 %13 to i64
  br label %16

16:                                               ; preds = %20, %.lr.ph.i.i.i
  %indvars.iv.i.i.i = phi i64 [ 0, %.lr.ph.i.i.i ], [ %indvars.iv.next.i.i.i, %20 ]
  %17 = getelementptr inbounds nuw i64, ptr %15, i64 %indvars.iv.i.i.i
  %18 = load i64, ptr %17, align 8, !tbaa !9
  %19 = icmp eq i64 %18, 129
  br i1 %19, label %local_id.exit.thread5, label %20

20:                                               ; preds = %16
  %indvars.iv.next.i.i.i = add nuw nsw i64 %indvars.iv.i.i.i, 1
  %exitcond.not.i.i.i = icmp eq i64 %indvars.iv.next.i.i.i, %wide.trip.count.i.i.i
  br i1 %exitcond.not.i.i.i, label %vtable_included.exit.thread.i.i, label %16, !llvm.loop !191

vtable_included.exit.thread.i.i:                  ; preds = %20, %.preheader.i.i.i, %.critedge37.i.i
  %switch.i38.i.i = icmp ult ptr %.031.lcssa.i.i, inttoptr (i64 2 to ptr)
  br i1 %switch.i38.i.i, label %local_id.exit.thread, label %.preheader.i39.i.i

.preheader.i39.i.i:                               ; preds = %vtable_included.exit.thread.i.i
  %21 = getelementptr inbounds nuw i8, ptr %.031.lcssa.i.i, i64 8
  %22 = load i32, ptr %21, align 8, !tbaa !179
  %23 = icmp sgt i32 %22, 0
  br i1 %23, label %.lr.ph.i41.i.i, label %local_id.exit.thread

.lr.ph.i41.i.i:                                   ; preds = %.preheader.i39.i.i
  %24 = load ptr, ptr %.031.lcssa.i.i, align 8, !tbaa !181
  %wide.trip.count.i42.i.i = zext nneg i32 %22 to i64
  br label %25

25:                                               ; preds = %29, %.lr.ph.i41.i.i
  %indvars.iv.i43.i.i = phi i64 [ 0, %.lr.ph.i41.i.i ], [ %indvars.iv.next.i44.i.i, %29 ]
  %26 = getelementptr inbounds nuw i64, ptr %24, i64 %indvars.iv.i43.i.i
  %27 = load i64, ptr %26, align 8, !tbaa !9
  %28 = icmp eq i64 %27, 129
  br i1 %28, label %local_id.exit.thread5, label %29

29:                                               ; preds = %25
  %indvars.iv.next.i44.i.i = add nuw nsw i64 %indvars.iv.i43.i.i, 1
  %exitcond.not.i45.i.i = icmp eq i64 %indvars.iv.next.i44.i.i, %wide.trip.count.i42.i.i
  br i1 %exitcond.not.i45.i.i, label %local_id.exit.thread, label %25, !llvm.loop !191

local_id.exit:                                    ; preds = %.lr.ph.i.i
  %30 = getelementptr inbounds nuw i8, ptr %0, i64 352
  %31 = load ptr, ptr %30, align 8, !tbaa !361
  %32 = tail call i32 @rb_parser_local_defined(ptr noundef %0, i64 noundef 129, ptr noundef %31) #31
  %.not = icmp eq i32 %32, 0
  br i1 %.not, label %local_id.exit.thread, label %local_id.exit.thread5

local_id.exit.thread:                             ; preds = %29, %.preheader.i39.i.i, %vtable_included.exit.thread.i.i, %local_id.exit
  tail call void (ptr, ptr, ...) @ripper_compile_error(ptr noundef %0, ptr noundef nonnull @.str.740) #31
  br label %local_id.exit.thread5

local_id.exit.thread5:                            ; preds = %16, %25, %local_id.exit, %local_id.exit.thread
  %.0 = phi i32 [ 0, %local_id.exit.thread ], [ 1, %local_id.exit ], [ 1, %25 ], [ 1, %16 ]
  ret i32 %.0
}